; Function Attrs: mustprogress uwtable
define void @_ZN4base18ThreadLocalStorage10StaticSlot3SetEPv(ptr noundef nonnull readonly align 4 captures(none) dereferenceable(8) %0, ptr noundef %1) local_unnamed_addr #0 align 2 personality ptr @__gxx_personality_v0 {
  %3 = load atomic volatile i32, ptr @_ZN12_GLOBAL__N_116g_native_tls_keyE monotonic, align 4
  %4 = tail call noundef ptr @_ZN4base8internal26PlatformThreadLocalStorage11GetTLSValueEj(i32 noundef %3)
  %.not = icmp eq ptr %4, null
  br i1 %.not, label %5, label %7

5:                                                ; preds = %2
  %6 = tail call fastcc noundef ptr @_ZN12_GLOBAL__N_118ConstructTlsVectorEv()
  br label %7

7:                                                ; preds = %5, %2
  %.0 = phi ptr [ %4, %2 ], [ %6, %5 ]
  %8 = getelementptr inbounds nuw i8, ptr %0, i64 4
  %9 = load i32, ptr %8, align 4, !tbaa !9
  %10 = sext i32 %9 to i64
  %11 = getelementptr inbounds ptr, ptr %.0, i64 %10
  store ptr %1, ptr %11, align 8, !tbaa !3
  ret void
}